target datalayout = "e-m:e-p270:32:32-p271:32:32-p272:64:64-i64:64-i128:128-f80:128-n8:16:32:64-S128"
target triple = "x86_64-pc-linux-gnu"

%struct.Saig_MvObj_t_ = type { i32, i32, i32 }
%struct.Vec_Ptr_t_ = type { i32, i32, ptr }
%struct.Saig_MvMan_t_ = type { ptr, i32, i32, i32, i32, ptr, ptr, ptr, ptr, ptr, i32, ptr, ptr, ptr, ptr, ptr, i32, [9 x i32], ptr, i32, i32, i32, ptr, i32, ptr }

@Saig_MvSimHash.s_SPrimes = internal global [16 x i32] [i32 1610612741, i32 805306457, i32 402653189, i32 201326611, i32 100663319, i32 50331653, i32 25165843, i32 12582917, i32 6291469, i32 3145739, i32 1572869, i32 786433, i32 393241, i32 196613, i32 98317, i32 49157], align 16

; Function Attrs: inlinehint nounwind uwtable
define internal void @Vec_PtrGrow(ptr noundef %0, i32 noundef %1) #2 {
  %3 = alloca ptr, align 8
  %4 = alloca i32, align 4
  store ptr %0, ptr %3, align 8, !tbaa !10
  store i32 %1, ptr %4, align 4, !tbaa !14
  %5 = load ptr, ptr %3, align 8, !tbaa !10
  %6 = getelementptr inbounds nuw %struct.Vec_Ptr_t_, ptr %5, i32 0, i32 0
  %7 = load i32, ptr %6, align 8, !tbaa !37
  %8 = load i32, ptr %4, align 4, !tbaa !14
  %9 = icmp sge i32 %7, %8
  br i1 %9, label %10, label %11

10:                                               ; preds = %2
  br label %36

11:                                               ; preds = %2
  %12 = load ptr, ptr %3, align 8, !tbaa !10
  %13 = getelementptr inbounds nuw %struct.Vec_Ptr_t_, ptr %12, i32 0, i32 2
  %14 = load ptr, ptr %13, align 8, !tbaa !38
  %15 = icmp ne ptr %14, null
  br i1 %15, label %16, label %24

16:                                               ; preds = %11
  %17 = load ptr, ptr %3, align 8, !tbaa !10
  %18 = getelementptr inbounds nuw %struct.Vec_Ptr_t_, ptr %17, i32 0, i32 2
  %19 = load ptr, ptr %18, align 8, !tbaa !38
  %20 = load i32, ptr %4, align 4, !tbaa !14
  %21 = sext i32 %20 to i64
  %22 = mul i64 8, %21
  %23 = call ptr @realloc(ptr noundef %19, i64 noundef %22) #14
  br label %29

24:                                               ; preds = %11
  %25 = load i32, ptr %4, align 4, !tbaa !14
  %26 = sext i32 %25 to i64
  %27 = mul i64 8, %26
  %28 = call noalias ptr @malloc(i64 noundef %27) #13
  br label %29

29:                                               ; preds = %24, %16
  %30 = phi ptr [ %23, %16 ], [ %28, %24 ]
  %31 = load ptr, ptr %3, align 8, !tbaa !10
  %32 = getelementptr inbounds nuw %struct.Vec_Ptr_t_, ptr %31, i32 0, i32 2
  store ptr %30, ptr %32, align 8, !tbaa !38
  %33 = load i32, ptr %4, align 4, !tbaa !14
  %34 = load ptr, ptr %3, align 8, !tbaa !10
  %35 = getelementptr inbounds nuw %struct.Vec_Ptr_t_, ptr %34, i32 0, i32 0
  store i32 %33, ptr %35, align 8, !tbaa !37
  br label %36

36:                                               ; preds = %29, %10
  ret void
}

; Function Attrs: nounwind uwtable
define i32 @Saig_MvSimHash(ptr noundef %0, i32 noundef %1, i32 noundef %2) #0 {
  %4 = alloca ptr, align 8
  %5 = alloca i32, align 4
  %6 = alloca i32, align 4
  %7 = alloca i32, align 4
  %8 = alloca i32, align 4
  store ptr %0, ptr %4, align 8, !tbaa !61
  store i32 %1, ptr %5, align 4, !tbaa !14
  store i32 %2, ptr %6, align 4, !tbaa !14
  call void @llvm.lifetime.start.p0(i64 4, ptr %7) #11
  store i32 0, ptr %7, align 4, !tbaa !14
  call void @llvm.lifetime.start.p0(i64 4, ptr %8) #11
  store i32 0, ptr %8, align 4, !tbaa !14
  br label %9

9:                                                ; preds = %27, %3
  %10 = load i32, ptr %8, align 4, !tbaa !14
  %11 = load i32, ptr %5, align 4, !tbaa !14
  %12 = icmp slt i32 %10, %11
  br i1 %12, label %13, label %30

13:                                               ; preds = %9
  %14 = load ptr, ptr %4, align 8, !tbaa !61
  %15 = load i32, ptr %8, align 4, !tbaa !14
  %16 = sext i32 %15 to i64
  %17 = getelementptr inbounds i32, ptr %14, i64 %16
  %18 = load i32, ptr %17, align 4, !tbaa !14
  %19 = load i32, ptr %8, align 4, !tbaa !14
  %20 = and i32 %19, 15
  %21 = sext i32 %20 to i64
  %22 = getelementptr inbounds [16 x i32], ptr @Saig_MvSimHash.s_SPrimes, i64 0, i64 %21
  %23 = load i32, ptr %22, align 4, !tbaa !14
  %24 = mul i32 %18, %23
  %25 = load i32, ptr %7, align 4, !tbaa !14
  %26 = xor i32 %25, %24
  store i32 %26, ptr %7, align 4, !tbaa !14
  br label %27

27:                                               ; preds = %13
  %28 = load i32, ptr %8, align 4, !tbaa !14
  %29 = add nsw i32 %28, 1
  store i32 %29, ptr %8, align 4, !tbaa !14
  br label %9, !llvm.loop !89

30:                                               ; preds = %9
  %31 = load i32, ptr %7, align 4, !tbaa !14
  %32 = load i32, ptr %6, align 4, !tbaa !14
  %33 = urem i32 %31, %32
  call void @llvm.lifetime.end.p0(i64 4, ptr %8) #11
  call void @llvm.lifetime.end.p0(i64 4, ptr %7) #11
  ret i32 %33
}

; Function Attrs: inlinehint nounwind uwtable
define internal void @Vec_PtrPush(ptr noundef %0, ptr noundef %1) #2 {
  %3 = alloca ptr, align 8
  %4 = alloca ptr, align 8
  store ptr %0, ptr %3, align 8, !tbaa !10
  store ptr %1, ptr %4, align 8, !tbaa !40
  %5 = load ptr, ptr %3, align 8, !tbaa !10
  %6 = getelementptr inbounds nuw %struct.Vec_Ptr_t_, ptr %5, i32 0, i32 1
  %7 = load i32, ptr %6, align 4, !tbaa !35
  %8 = load ptr, ptr %3, align 8, !tbaa !10
  %9 = getelementptr inbounds nuw %struct.Vec_Ptr_t_, ptr %8, i32 0, i32 0
  %10 = load i32, ptr %9, align 8, !tbaa !37
  %11 = icmp eq i32 %7, %10
  br i1 %11, label %12, label %26

12:                                               ; preds = %2
  %13 = load ptr, ptr %3, align 8, !tbaa !10
  %14 = getelementptr inbounds nuw %struct.Vec_Ptr_t_, ptr %13, i32 0, i32 0
  %15 = load i32, ptr %14, align 8, !tbaa !37
  %16 = icmp slt i32 %15, 16
  br i1 %16, label %17, label %19

17:                                               ; preds = %12
  %18 = load ptr, ptr %3, align 8, !tbaa !10
  call void @Vec_PtrGrow(ptr noundef %18, i32 noundef 16)
  br label %25

19:                                               ; preds = %12
  %20 = load ptr, ptr %3, align 8, !tbaa !10
  %21 = load ptr, ptr %3, align 8, !tbaa !10
  %22 = getelementptr inbounds nuw %struct.Vec_Ptr_t_, ptr %21, i32 0, i32 0
  %23 = load i32, ptr %22, align 8, !tbaa !37
  %24 = mul nsw i32 2, %23
  call void @Vec_PtrGrow(ptr noundef %20, i32 noundef %24)
  br label %25

25:                                               ; preds = %19, %17
  br label %26

26:                                               ; preds = %25, %2
  %27 = load ptr, ptr %4, align 8, !tbaa !40
  %28 = load ptr, ptr %3, align 8, !tbaa !10
  %29 = getelementptr inbounds nuw %struct.Vec_Ptr_t_, ptr %28, i32 0, i32 2
  %30 = load ptr, ptr %29, align 8, !tbaa !38
  %31 = load ptr, ptr %3, align 8, !tbaa !10
  %32 = getelementptr inbounds nuw %struct.Vec_Ptr_t_, ptr %31, i32 0, i32 1
  %33 = load i32, ptr %32, align 4, !tbaa !35
  %34 = add nsw i32 %33, 1
  store i32 %34, ptr %32, align 4, !tbaa !35
  %35 = sext i32 %33 to i64
  %36 = getelementptr inbounds ptr, ptr %30, i64 %35
  store ptr %27, ptr %36, align 8, !tbaa !40
  ret void
}

; Function Attrs: inlinehint nounwind uwtable
define internal ptr @Saig_MvSimTableFind(ptr noundef %0, ptr noundef %1) #2 {
  %3 = alloca ptr, align 8
  %4 = alloca ptr, align 8
  %5 = alloca ptr, align 8
  %6 = alloca ptr, align 8
  store ptr %0, ptr %3, align 8, !tbaa !44
  store ptr %1, ptr %4, align 8, !tbaa !61
  call void @llvm.lifetime.start.p0(i64 8, ptr %5) #11
  call void @llvm.lifetime.start.p0(i64 8, ptr %6) #11
  %7 = load ptr, ptr %3, align 8, !tbaa !44
  %8 = getelementptr inbounds nuw %struct.Saig_MvMan_t_, ptr %7, i32 0, i32 9
  %9 = load ptr, ptr %8, align 8, !tbaa !56
  %10 = load ptr, ptr %4, align 8, !tbaa !61
  %11 = getelementptr inbounds i32, ptr %10, i64 1
  %12 = load ptr, ptr %3, align 8, !tbaa !44
  %13 = getelementptr inbounds nuw %struct.Saig_MvMan_t_, ptr %12, i32 0, i32 4
  %14 = load i32, ptr %13, align 4, !tbaa !53
  %15 = load ptr, ptr %3, align 8, !tbaa !44
  %16 = getelementptr inbounds nuw %struct.Saig_MvMan_t_, ptr %15, i32 0, i32 10
  %17 = load i32, ptr %16, align 8, !tbaa !55
  %18 = call i32 @Saig_MvSimHash(ptr noundef %11, i32 noundef %14, i32 noundef %17)
  %19 = sext i32 %18 to i64
  %20 = getelementptr inbounds i32, ptr %9, i64 %19
  store ptr %20, ptr %6, align 8, !tbaa !61
  %21 = load ptr, ptr %6, align 8, !tbaa !61
  %22 = load i32, ptr %21, align 4, !tbaa !14
  %23 = icmp ne i32 %22, 0
  br i1 %23, label %24, label %31

24:                                               ; preds = %2
  %25 = load ptr, ptr %3, align 8, !tbaa !44
  %26 = getelementptr inbounds nuw %struct.Saig_MvMan_t_, ptr %25, i32 0, i32 12
  %27 = load ptr, ptr %26, align 8, !tbaa !58
  %28 = load ptr, ptr %6, align 8, !tbaa !61
  %29 = load i32, ptr %28, align 4, !tbaa !14
  %30 = call ptr @Vec_PtrEntry(ptr noundef %27, i32 noundef %29)
  br label %32

31:                                               ; preds = %2
  br label %32

32:                                               ; preds = %31, %24
  %33 = phi ptr [ %30, %24 ], [ null, %31 ]
  store ptr %33, ptr %5, align 8, !tbaa !61
  br label %34

34:                                               ; preds = %64, %32
  %35 = load ptr, ptr %5, align 8, !tbaa !61
  %36 = icmp ne ptr %35, null
  br i1 %36, label %37, label %66

37:                                               ; preds = %34
  %38 = load ptr, ptr %5, align 8, !tbaa !61
  %39 = getelementptr inbounds i32, ptr %38, i64 1
  %40 = load ptr, ptr %4, align 8, !tbaa !61
  %41 = getelementptr inbounds i32, ptr %40, i64 1
  %42 = load ptr, ptr %3, align 8, !tbaa !44
  %43 = getelementptr inbounds nuw %struct.Saig_MvMan_t_, ptr %42, i32 0, i32 4
  %44 = load i32, ptr %43, align 4, !tbaa !53
  %45 = sext i32 %44 to i64
  %46 = mul i64 4, %45
  %47 = call i32 @memcmp(ptr noundef %39, ptr noundef %41, i64 noundef %46) #15
  %48 = icmp eq i32 %47, 0
  br i1 %48, label %49, label %50

49:                                               ; preds = %37
  br label %66

50:                                               ; preds = %37
  br label %51

51:                                               ; preds = %50
  %52 = load ptr, ptr %5, align 8, !tbaa !61
  store ptr %52, ptr %6, align 8, !tbaa !61
  %53 = load ptr, ptr %6, align 8, !tbaa !61
  %54 = load i32, ptr %53, align 4, !tbaa !14
  %55 = icmp ne i32 %54, 0
  br i1 %55, label %56, label %63

56:                                               ; preds = %51
  %57 = load ptr, ptr %3, align 8, !tbaa !44
  %58 = getelementptr inbounds nuw %struct.Saig_MvMan_t_, ptr %57, i32 0, i32 12
  %59 = load ptr, ptr %58, align 8, !tbaa !58
  %60 = load ptr, ptr %6, align 8, !tbaa !61
  %61 = load i32, ptr %60, align 4, !tbaa !14
  %62 = call ptr @Vec_PtrEntry(ptr noundef %59, i32 noundef %61)
  br label %64

63:                                               ; preds = %51
  br label %64

64:                                               ; preds = %63, %56
  %65 = phi ptr [ %62, %56 ], [ null, %63 ]
  store ptr %65, ptr %5, align 8, !tbaa !61
  br label %34, !llvm.loop !91

66:                                               ; preds = %49, %34
  %67 = load ptr, ptr %6, align 8, !tbaa !61
  call void @llvm.lifetime.end.p0(i64 8, ptr %6) #11
  call void @llvm.lifetime.end.p0(i64 8, ptr %5) #11
  ret ptr %67
}

; Function Attrs: inlinehint nounwind uwtable
define internal ptr @Vec_PtrEntry(ptr noundef %0, i32 noundef %1) #2 {
  %3 = alloca ptr, align 8
  %4 = alloca i32, align 4
  store ptr %0, ptr %3, align 8, !tbaa !10
  store i32 %1, ptr %4, align 4, !tbaa !14
  %5 = load ptr, ptr %3, align 8, !tbaa !10
  %6 = getelementptr inbounds nuw %struct.Vec_Ptr_t_, ptr %5, i32 0, i32 2
  %7 = load ptr, ptr %6, align 8, !tbaa !38
  %8 = load i32, ptr %4, align 4, !tbaa !14
  %9 = sext i32 %8 to i64
  %10 = getelementptr inbounds ptr, ptr %7, i64 %9
  %11 = load ptr, ptr %10, align 8, !tbaa !40
  ret ptr %11
}

; Function Attrs: inlinehint nounwind uwtable
define internal i32 @Vec_PtrSize(ptr noundef %0) #2 {
  %2 = alloca ptr, align 8
  store ptr %0, ptr %2, align 8, !tbaa !10
  %3 = load ptr, ptr %2, align 8, !tbaa !10
  %4 = getelementptr inbounds nuw %struct.Vec_Ptr_t_, ptr %3, i32 0, i32 1
  %5 = load i32, ptr %4, align 4, !tbaa !35
  ret i32 %5
}

; Function Attrs: nounwind uwtable
define i32 @Saig_MvSaveState(ptr noundef %0) #0 {
  %2 = alloca i32, align 4
  %3 = alloca ptr, align 8
  %4 = alloca ptr, align 8
  %5 = alloca ptr, align 8
  %6 = alloca ptr, align 8
  %7 = alloca i32, align 4
  %8 = alloca i32, align 4
  store ptr %0, ptr %3, align 8, !tbaa !44
  call void @llvm.lifetime.start.p0(i64 8, ptr %4) #11
  call void @llvm.lifetime.start.p0(i64 8, ptr %5) #11
  call void @llvm.lifetime.start.p0(i64 8, ptr %6) #11
  call void @llvm.lifetime.start.p0(i64 4, ptr %7) #11
  %9 = load ptr, ptr %3, align 8, !tbaa !44
  %10 = getelementptr inbounds nuw %struct.Saig_MvMan_t_, ptr %9, i32 0, i32 11
  %11 = load ptr, ptr %10, align 8, !tbaa !57
  %12 = call ptr @Aig_MmFixedEntryFetch(ptr noundef %11)
  store ptr %12, ptr %5, align 8, !tbaa !61
  %13 = load ptr, ptr %5, align 8, !tbaa !61
  %14 = getelementptr inbounds i32, ptr %13, i64 0
  store i32 0, ptr %14, align 4, !tbaa !14
  store i32 0, ptr %7, align 4, !tbaa !14
  br label %15

15:                                               ; preds = %40, %1
  %16 = load i32, ptr %7, align 4, !tbaa !14
  %17 = load ptr, ptr %3, align 8, !tbaa !44
  %18 = getelementptr inbounds nuw %struct.Saig_MvMan_t_, ptr %17, i32 0, i32 6
  %19 = load ptr, ptr %18, align 8, !tbaa !80
  %20 = call i32 @Vec_PtrSize(ptr noundef %19)
  %21 = icmp slt i32 %16, %20
  br i1 %21, label %22, label %28

22:                                               ; preds = %15
  %23 = load ptr, ptr %3, align 8, !tbaa !44
  %24 = getelementptr inbounds nuw %struct.Saig_MvMan_t_, ptr %23, i32 0, i32 6
  %25 = load ptr, ptr %24, align 8, !tbaa !80
  %26 = load i32, ptr %7, align 4, !tbaa !14
  %27 = call ptr @Vec_PtrEntry(ptr noundef %25, i32 noundef %26)
  store ptr %27, ptr %4, align 8, !tbaa !12
  br label %28

28:                                               ; preds = %22, %15
  %29 = phi i1 [ false, %15 ], [ true, %22 ]
  br i1 %29, label %30, label %43

30:                                               ; preds = %28
  %31 = load ptr, ptr %4, align 8, !tbaa !12
  %32 = getelementptr inbounds nuw %struct.Saig_MvObj_t_, ptr %31, i32 0, i32 2
  %33 = load i32, ptr %32, align 4
  %34 = lshr i32 %33, 3
  %35 = load ptr, ptr %5, align 8, !tbaa !61
  %36 = load i32, ptr %7, align 4, !tbaa !14
  %37 = add nsw i32 %36, 1
  %38 = sext i32 %37 to i64
  %39 = getelementptr inbounds i32, ptr %35, i64 %38
  store i32 %34, ptr %39, align 4, !tbaa !14
  br label %40

40:                                               ; preds = %30
  %41 = load i32, ptr %7, align 4, !tbaa !14
  %42 = add nsw i32 %41, 1
  store i32 %42, ptr %7, align 4, !tbaa !14
  br label %15, !llvm.loop !90

43:                                               ; preds = %28
  %44 = load ptr, ptr %3, align 8, !tbaa !44
  %45 = load ptr, ptr %5, align 8, !tbaa !61
  %46 = call ptr @Saig_MvSimTableFind(ptr noundef %44, ptr noundef %45)
  store ptr %46, ptr %6, align 8, !tbaa !61
  %47 = load ptr, ptr %6, align 8, !tbaa !61
  %48 = load i32, ptr %47, align 4, !tbaa !14
  %49 = icmp ne i32 %48, 0
  br i1 %49, label %50, label %53

50:                                               ; preds = %43
  %51 = load ptr, ptr %6, align 8, !tbaa !61
  %52 = load i32, ptr %51, align 4, !tbaa !14
  store i32 %52, ptr %2, align 4
  store i32 1, ptr %8, align 4
  br label %63

53:                                               ; preds = %43
  %54 = load ptr, ptr %3, align 8, !tbaa !44
  %55 = getelementptr inbounds nuw %struct.Saig_MvMan_t_, ptr %54, i32 0, i32 12
  %56 = load ptr, ptr %55, align 8, !tbaa !58
  %57 = call i32 @Vec_PtrSize(ptr noundef %56)
  %58 = load ptr, ptr %6, align 8, !tbaa !61
  store i32 %57, ptr %58, align 4, !tbaa !14
  %59 = load ptr, ptr %3, align 8, !tbaa !44
  %60 = getelementptr inbounds nuw %struct.Saig_MvMan_t_, ptr %59, i32 0, i32 12
  %61 = load ptr, ptr %60, align 8, !tbaa !58
  %62 = load ptr, ptr %5, align 8, !tbaa !61
  call void @Vec_PtrPush(ptr noundef %61, ptr noundef %62)
  store i32 -1, ptr %2, align 4
  store i32 1, ptr %8, align 4
  br label %63

63:                                               ; preds = %53, %50
  call void @llvm.lifetime.end.p0(i64 4, ptr %7) #11
  call void @llvm.lifetime.end.p0(i64 8, ptr %6) #11
  call void @llvm.lifetime.end.p0(i64 8, ptr %5) #11
  call void @llvm.lifetime.end.p0(i64 8, ptr %4) #11
  %64 = load i32, ptr %2, align 4
  ret i32 %64
}