; Function Attrs: nounwind uwtable
define range(i32 1, 0) i32 @Saig_MvSaveState(ptr noundef readonly captures(none) %0) local_unnamed_addr #0 {
  %2 = getelementptr inbounds nuw i8, ptr %0, i64 72
  %3 = load ptr, ptr %2, align 8, !tbaa !54
  %4 = tail call ptr @Aig_MmFixedEntryFetch(ptr noundef %3) #22
  store i32 0, ptr %4, align 4, !tbaa !78
  %5 = getelementptr inbounds nuw i8, ptr %0, i64 32
  %6 = load ptr, ptr %5, align 8, !tbaa !76
  %7 = getelementptr i8, ptr %6, i64 4
  %.val2027 = load i32, ptr %7, align 4, !tbaa !21
  %8 = icmp sgt i32 %.val2027, 0
  br i1 %8, label %.lr.ph, label %.critedge

.lr.ph:                                           ; preds = %1
  %9 = getelementptr i8, ptr %6, i64 8
  %.val21 = load ptr, ptr %9, align 8, !tbaa !24
  br label %10

10:                                               ; preds = %.lr.ph, %10
  %indvars.iv = phi i64 [ 0, %.lr.ph ], [ %indvars.iv.next, %10 ]
  %11 = getelementptr inbounds nuw ptr, ptr %.val21, i64 %indvars.iv
  %12 = load ptr, ptr %11, align 8, !tbaa !27
  %13 = getelementptr inbounds nuw i8, ptr %12, i64 8
  %14 = load i32, ptr %13, align 4
  %15 = lshr i32 %14, 3
  %indvars.iv.next = add nuw nsw i64 %indvars.iv, 1
  %16 = getelementptr inbounds nuw i32, ptr %4, i64 %indvars.iv.next
  store i32 %15, ptr %16, align 4, !tbaa !78
  %.val20 = load i32, ptr %7, align 4, !tbaa !21
  %17 = sext i32 %.val20 to i64
  %18 = icmp slt i64 %indvars.iv.next, %17
  br i1 %18, label %10, label %.critedge, !llvm.loop !82

.critedge:                                        ; preds = %10, %1
  %19 = getelementptr inbounds nuw i8, ptr %0, i64 56
  %20 = load ptr, ptr %19, align 8, !tbaa !53
  %21 = getelementptr inbounds nuw i8, ptr %4, i64 4
  %22 = getelementptr inbounds nuw i8, ptr %0, i64 20
  %23 = load i32, ptr %22, align 4, !tbaa !48
  %24 = getelementptr inbounds nuw i8, ptr %0, i64 64
  %25 = load i32, ptr %24, align 8, !tbaa !52
  %26 = icmp sgt i32 %23, 0
  br i1 %26, label %.lr.ph.preheader.i.i, label %Saig_MvSimHash.exit.i

.lr.ph.preheader.i.i:                             ; preds = %.critedge
  %wide.trip.count.i.i = zext nneg i32 %23 to i64
  br label %.lr.ph.i.i

.lr.ph.i.i:                                       ; preds = %.lr.ph.i.i, %.lr.ph.preheader.i.i
  %indvars.iv.i.i = phi i64 [ 0, %.lr.ph.preheader.i.i ], [ %indvars.iv.next.i.i, %.lr.ph.i.i ]
  %.089.i.i = phi i32 [ 0, %.lr.ph.preheader.i.i ], [ %33, %.lr.ph.i.i ]
  %27 = getelementptr inbounds nuw i32, ptr %21, i64 %indvars.iv.i.i
  %28 = load i32, ptr %27, align 4, !tbaa !78
  %29 = and i64 %indvars.iv.i.i, 15
  %30 = getelementptr inbounds nuw [16 x i32], ptr @Saig_MvSimHash.s_SPrimes, i64 0, i64 %29
  %31 = load i32, ptr %30, align 4, !tbaa !78
  %32 = mul i32 %31, %28
  %33 = xor i32 %32, %.089.i.i
  %indvars.iv.next.i.i = add nuw nsw i64 %indvars.iv.i.i, 1
  %exitcond.not.i.i = icmp eq i64 %indvars.iv.next.i.i, %wide.trip.count.i.i
  br i1 %exitcond.not.i.i, label %Saig_MvSimHash.exit.i, label %.lr.ph.i.i, !llvm.loop !81

Saig_MvSimHash.exit.i:                            ; preds = %.lr.ph.i.i, %.critedge
  %.08.lcssa.i.i = phi i32 [ 0, %.critedge ], [ %33, %.lr.ph.i.i ]
  %34 = urem i32 %.08.lcssa.i.i, %25
  %35 = sext i32 %34 to i64
  %36 = getelementptr inbounds i32, ptr %20, i64 %35
  %37 = load i32, ptr %36, align 4, !tbaa !78
  %.not.i = icmp eq i32 %37, 0
  %.phi.trans.insert = getelementptr inbounds nuw i8, ptr %0, i64 80
  %.pre = load ptr, ptr %.phi.trans.insert, align 8, !tbaa !55
  br i1 %.not.i, label %Saig_MvSimTableFind.exit.thread, label %38

38:                                               ; preds = %Saig_MvSimHash.exit.i
  %39 = getelementptr i8, ptr %.pre, i64 8
  %.val21.i = load ptr, ptr %39, align 8, !tbaa !24
  %40 = sext i32 %37 to i64
  %41 = getelementptr inbounds ptr, ptr %.val21.i, i64 %40
  %42 = load ptr, ptr %41, align 8, !tbaa !27
  %.not1922.i = icmp eq ptr %42, null
  br i1 %.not1922.i, label %Saig_MvSimTableFind.exit, label %.lr.ph.i

.lr.ph.i:                                         ; preds = %38
  %43 = sext i32 %23 to i64
  %44 = shl nsw i64 %43, 2
  %45 = getelementptr inbounds nuw i8, ptr %42, i64 4
  %bcmp.i29 = tail call i32 @bcmp(ptr nonnull %45, ptr nonnull readonly %21, i64 %44)
  %46 = icmp eq i32 %bcmp.i29, 0
  br i1 %46, label %Saig_MvSimTableFind.exit, label %.lr.ph31

47:                                               ; preds = %51
  %48 = getelementptr inbounds nuw i8, ptr %54, i64 4
  %bcmp.i = tail call i32 @bcmp(ptr nonnull %48, ptr nonnull readonly %21, i64 %44)
  %49 = icmp eq i32 %bcmp.i, 0
  br i1 %49, label %Saig_MvSimTableFind.exit, label %.lr.ph31, !llvm.loop !83

.lr.ph31:                                         ; preds = %.lr.ph.i, %47
  %.01623.i30 = phi ptr [ %54, %47 ], [ %42, %.lr.ph.i ]
  %50 = load i32, ptr %.01623.i30, align 4, !tbaa !78
  %.not20.i = icmp eq i32 %50, 0
  br i1 %.not20.i, label %Saig_MvSimTableFind.exit.thread, label %51

51:                                               ; preds = %.lr.ph31
  %52 = sext i32 %50 to i64
  %53 = getelementptr inbounds ptr, ptr %.val21.i, i64 %52
  %54 = load ptr, ptr %53, align 8, !tbaa !27
  %.not19.i = icmp eq ptr %54, null
  br i1 %.not19.i, label %Saig_MvSimTableFind.exit, label %47, !llvm.loop !83

Saig_MvSimTableFind.exit.thread:                  ; preds = %.lr.ph31, %Saig_MvSimHash.exit.i
  %.0.lcssa.i25 = phi ptr [ %36, %Saig_MvSimHash.exit.i ], [ %.01623.i30, %.lr.ph31 ]
  %55 = getelementptr i8, ptr %.pre, i64 4
  %.val = load i32, ptr %55, align 4, !tbaa !21
  store i32 %.val, ptr %.0.lcssa.i25, align 4, !tbaa !78
  %56 = load i32, ptr %.pre, align 8, !tbaa !23
  %57 = icmp eq i32 %.val, %56
  br i1 %57, label %58, label %.Vec_PtrGrow.exit11_crit_edge.i

.Vec_PtrGrow.exit11_crit_edge.i:                  ; preds = %Saig_MvSimTableFind.exit.thread
  %.phi.trans.insert.i = getelementptr inbounds nuw i8, ptr %.pre, i64 8
  %.pre.i = load ptr, ptr %.phi.trans.insert.i, align 8, !tbaa !24
  br label %Vec_PtrPush.exit

58:                                               ; preds = %Saig_MvSimTableFind.exit.thread
  %59 = icmp slt i32 %.val, 16
  br i1 %59, label %60, label %68

60:                                               ; preds = %58
  %61 = getelementptr inbounds nuw i8, ptr %.pre, i64 8
  %62 = load ptr, ptr %61, align 8, !tbaa !24
  %.not9.i.i = icmp eq ptr %62, null
  br i1 %.not9.i.i, label %65, label %63

63:                                               ; preds = %60
  %64 = tail call dereferenceable_or_null(128) ptr @realloc(ptr noundef nonnull %62, i64 noundef 128) #21
  br label %Vec_PtrGrow.exit.i

65:                                               ; preds = %60
  %66 = tail call noalias dereferenceable_or_null(128) ptr @malloc(i64 noundef 128) #19
  br label %Vec_PtrGrow.exit.i

Vec_PtrGrow.exit.i:                               ; preds = %65, %63
  %67 = phi ptr [ %64, %63 ], [ %66, %65 ]
  store ptr %67, ptr %61, align 8, !tbaa !24
  store i32 16, ptr %.pre, align 8, !tbaa !23
  br label %Vec_PtrPush.exit

68:                                               ; preds = %58
  %69 = shl nuw nsw i32 %.val, 1
  %70 = getelementptr inbounds nuw i8, ptr %.pre, i64 8
  %71 = load ptr, ptr %70, align 8, !tbaa !24
  %.not9.i10.i = icmp eq ptr %71, null
  %72 = zext nneg i32 %69 to i64
  %73 = shl nuw nsw i64 %72, 3
  br i1 %.not9.i10.i, label %76, label %74

74:                                               ; preds = %68
  %75 = tail call ptr @realloc(ptr noundef nonnull %71, i64 noundef %73) #21
  br label %78

76:                                               ; preds = %68
  %77 = tail call noalias ptr @malloc(i64 noundef %73) #19
  br label %78

78:                                               ; preds = %76, %74
  %79 = phi ptr [ %75, %74 ], [ %77, %76 ]
  store ptr %79, ptr %70, align 8, !tbaa !24
  store i32 %69, ptr %.pre, align 8, !tbaa !23
  br label %Vec_PtrPush.exit

Vec_PtrPush.exit:                                 ; preds = %.Vec_PtrGrow.exit11_crit_edge.i, %Vec_PtrGrow.exit.i, %78
  %80 = phi ptr [ %.pre.i, %.Vec_PtrGrow.exit11_crit_edge.i ], [ %79, %78 ], [ %67, %Vec_PtrGrow.exit.i ]
  %81 = load i32, ptr %55, align 4, !tbaa !21
  %82 = add nsw i32 %81, 1
  store i32 %82, ptr %55, align 4, !tbaa !21
  %83 = sext i32 %81 to i64
  %84 = getelementptr inbounds ptr, ptr %80, i64 %83
  store ptr %4, ptr %84, align 8, !tbaa !27
  br label %Saig_MvSimTableFind.exit

Saig_MvSimTableFind.exit:                         ; preds = %47, %51, %38, %.lr.ph.i, %Vec_PtrPush.exit
  %.018 = phi i32 [ -1, %Vec_PtrPush.exit ], [ %37, %38 ], [ %37, %.lr.ph.i ], [ %50, %51 ], [ %50, %47 ]
  ret i32 %.018
}